target datalayout = "e-m:e-p270:32:32-p271:32:32-p272:64:64-i64:64-i128:128-f80:128-n8:16:32:64-S128"
target triple = "x86_64-pc-linux-gnu"

%struct.quic_hp_cipher = type { ptr }
%struct._StringInfo = type { ptr, i32 }

@.str.494 = private unnamed_addr constant [7 x i8] c"tls13 \00", align 1
@.str.495 = private unnamed_addr constant [29 x i8] c"Unsupported cipher algorithm\00", align 1
@.str.496 = private unnamed_addr constant [27 x i8] c"Failed to create HP cipher\00", align 1
@.str.497 = private unnamed_addr constant [44 x i8] c"Failed to derive key material for HP cipher\00", align 1
@.str.498 = private unnamed_addr constant [8 x i8] c"quic hp\00", align 1
@.str.499 = private unnamed_addr constant [10 x i8] c"quicv2 hp\00", align 1

; Function Attrs: alwaysinline nounwind
define internal ptr @memcpy.inline(ptr noalias %0, ptr noalias %1, i64 %2) #4 {
  %4 = alloca ptr, align 8
  %5 = alloca ptr, align 8
  %6 = alloca i64, align 8
  store ptr %0, ptr %4, align 8
  store ptr %1, ptr %5, align 8
  store i64 %2, ptr %6, align 8
  %7 = load ptr, ptr %4, align 8
  %8 = load ptr, ptr %5, align 8
  %9 = load i64, ptr %6, align 8
  %10 = load ptr, ptr %4, align 8
  %11 = call i64 @llvm.objectsize.i64.p0(ptr %10, i1 false, i1 true, i1 true)
  %12 = call ptr @__memcpy_chk(ptr noundef %7, ptr noundef %8, i64 noundef %9, i64 noundef %11) #19
  ret ptr %12
}

; Function Attrs: null_pointer_is_valid sspstrong uwtable
define internal zeroext i1 @quic_hkdf_expand_label(i32 noundef %0, ptr noundef %1, i32 noundef %2, ptr noundef %3, ptr noundef %4, i32 noundef %5) #0 {
  %7 = alloca i1, align 1
  %8 = alloca i32, align 4
  %9 = alloca ptr, align 8
  %10 = alloca i32, align 4
  %11 = alloca ptr, align 8
  %12 = alloca ptr, align 8
  %13 = alloca i32, align 4
  %14 = alloca %struct._StringInfo, align 8
  %15 = alloca ptr, align 8
  %16 = alloca i32, align 4
  store i32 %0, ptr %8, align 4
  store ptr %1, ptr %9, align 8
  store i32 %2, ptr %10, align 4
  store ptr %3, ptr %11, align 8
  store ptr %4, ptr %12, align 8
  store i32 %5, ptr %13, align 4
  call void @llvm.lifetime.start.p0(i64 16, ptr %14) #19
  %17 = getelementptr inbounds nuw %struct._StringInfo, ptr %14, i32 0, i32 0
  %18 = load ptr, ptr %9, align 8
  store ptr %18, ptr %17, align 8
  %19 = getelementptr inbounds nuw %struct._StringInfo, ptr %14, i32 0, i32 1
  %20 = load i32, ptr %10, align 4
  store i32 %20, ptr %19, align 8
  %21 = getelementptr i8, ptr %14, i64 12
  call void @llvm.memset.p0.i64(ptr align 4 %21, i8 0, i64 4, i1 false)
  call void @llvm.lifetime.start.p0(i64 8, ptr %15) #19
  store ptr null, ptr %15, align 8
  %22 = load i32, ptr %8, align 4
  %23 = load ptr, ptr %11, align 8
  %24 = load i32, ptr %13, align 4
  %25 = trunc i32 %24 to i16
  %26 = call zeroext i1 @tls13_hkdf_expand_label(i32 noundef %22, ptr noundef %14, ptr noundef @.str.494, ptr noundef %23, i16 noundef zeroext %25, ptr noundef %15)
  br i1 %26, label %27, label %34

27:                                               ; preds = %6
  %28 = load ptr, ptr %12, align 8
  %29 = load ptr, ptr %15, align 8
  %30 = load i32, ptr %13, align 4
  %31 = zext i32 %30 to i64
  %32 = call ptr @memcpy.inline(ptr noundef %28, ptr noundef %29, i64 noundef %31) #19
  %33 = load ptr, ptr %15, align 8
  call void @wmem_free(ptr noundef null, ptr noundef %33)
  store i1 true, ptr %7, align 1
  store i32 1, ptr %16, align 4
  br label %35

34:                                               ; preds = %6
  store i1 false, ptr %7, align 1
  store i32 1, ptr %16, align 4
  br label %35

35:                                               ; preds = %34, %27
  call void @llvm.lifetime.end.p0(i64 8, ptr %15) #19
  call void @llvm.lifetime.end.p0(i64 16, ptr %14) #19
  %36 = load i1, ptr %7, align 1
  ret i1 %36
}

; Function Attrs: inlinehint nounwind null_pointer_is_valid sspstrong uwtable
define internal zeroext i1 @is_quic_v2(i32 noundef %0) #10 {
  %2 = alloca i32, align 4
  store i32 %0, ptr %2, align 4
  %3 = load i32, ptr %2, align 4
  %4 = icmp eq i32 %3, 1798521807
  ret i1 %4
}

; Function Attrs: alwaysinline nounwind
define internal ptr @memset.inline(ptr %0, i32 %1, i64 %2) #4 {
  %4 = alloca ptr, align 8
  %5 = alloca i32, align 4
  %6 = alloca i64, align 8
  store ptr %0, ptr %4, align 8
  store i32 %1, ptr %5, align 4
  store i64 %2, ptr %6, align 8
  %7 = load ptr, ptr %4, align 8
  %8 = load i32, ptr %5, align 4
  %9 = load i64, ptr %6, align 8
  %10 = load ptr, ptr %4, align 8
  %11 = call i64 @llvm.objectsize.i64.p0(ptr %10, i1 false, i1 true, i1 true)
  %12 = call ptr @__memset_chk(ptr noundef %7, i32 noundef %8, i64 noundef %9, i64 noundef %11) #19
  ret ptr %12
}

; Function Attrs: null_pointer_is_valid sspstrong uwtable
define internal zeroext i1 @quic_hp_cipher_init(ptr noundef %0, i32 noundef %1, i8 noundef zeroext %2, ptr noundef %3, i32 noundef %4) #0 {
  %6 = alloca i1, align 1
  %7 = alloca ptr, align 8
  %8 = alloca i32, align 4
  %9 = alloca i8, align 1
  %10 = alloca ptr, align 8
  %11 = alloca i32, align 4
  %12 = alloca [32 x i8], align 16
  %13 = alloca i32, align 4
  %14 = alloca ptr, align 8
  %15 = alloca i32, align 4
  store ptr %0, ptr %7, align 8
  store i32 %1, ptr %8, align 4
  store i8 %2, ptr %9, align 1
  store ptr %3, ptr %10, align 8
  store i32 %4, ptr %11, align 4
  call void @llvm.lifetime.start.p0(i64 32, ptr %12) #19
  call void @llvm.lifetime.start.p0(i64 4, ptr %13) #19
  %16 = load i32, ptr %8, align 4
  %17 = call i32 @gcry_md_get_algo_dlen(i32 noundef %16)
  store i32 %17, ptr %13, align 4
  call void @llvm.lifetime.start.p0(i64 8, ptr %14) #19
  %18 = load i32, ptr %11, align 4
  %19 = call zeroext i1 @is_quic_v2(i32 noundef %18)
  %20 = xor i1 %19, true
  %21 = select i1 %20, ptr @.str.498, ptr @.str.499
  store ptr %21, ptr %14, align 8
  %22 = load i32, ptr %8, align 4
  %23 = load ptr, ptr %10, align 8
  %24 = load i32, ptr %13, align 4
  %25 = load ptr, ptr %14, align 8
  %26 = getelementptr inbounds [32 x i8], ptr %12, i64 0, i64 0
  %27 = load i8, ptr %9, align 1
  %28 = zext i8 %27 to i32
  %29 = call zeroext i1 @quic_hkdf_expand_label(i32 noundef %22, ptr noundef %23, i32 noundef %24, ptr noundef %25, ptr noundef %26, i32 noundef %28)
  br i1 %29, label %31, label %30

30:                                               ; preds = %5
  store i1 false, ptr %6, align 1
  store i32 1, ptr %15, align 4
  br label %40

31:                                               ; preds = %5
  %32 = load ptr, ptr %7, align 8
  %33 = getelementptr inbounds nuw %struct.quic_hp_cipher, ptr %32, i32 0, i32 0
  %34 = load ptr, ptr %33, align 8
  %35 = getelementptr inbounds [32 x i8], ptr %12, i64 0, i64 0
  %36 = load i8, ptr %9, align 1
  %37 = zext i8 %36 to i64
  %38 = call i32 @gcry_cipher_setkey(ptr noundef %34, ptr noundef %35, i64 noundef %37)
  %39 = icmp eq i32 %38, 0
  store i1 %39, ptr %6, align 1
  store i32 1, ptr %15, align 4
  br label %40

40:                                               ; preds = %31, %30
  call void @llvm.lifetime.end.p0(i64 8, ptr %14) #19
  call void @llvm.lifetime.end.p0(i64 4, ptr %13) #19
  call void @llvm.lifetime.end.p0(i64 32, ptr %12) #19
  %41 = load i1, ptr %6, align 1
  ret i1 %41
}

; Function Attrs: nounwind null_pointer_is_valid sspstrong uwtable
define internal zeroext i1 @quic_get_pn_cipher_algo(i32 noundef %0, ptr noundef %1) #3 {
  %3 = alloca i1, align 1
  %4 = alloca i32, align 4
  %5 = alloca ptr, align 8
  store i32 %0, ptr %4, align 4
  store ptr %1, ptr %5, align 8
  %6 = load i32, ptr %4, align 4
  switch i32 %6, label %11 [
    i32 7, label %7
    i32 9, label %7
    i32 316, label %9
  ]

7:                                                ; preds = %2, %2
  %8 = load ptr, ptr %5, align 8
  store i32 1, ptr %8, align 4
  store i1 true, ptr %3, align 1
  br label %12

9:                                                ; preds = %2
  %10 = load ptr, ptr %5, align 8
  store i32 4, ptr %10, align 4
  store i1 true, ptr %3, align 1
  br label %12

11:                                               ; preds = %2
  store i1 false, ptr %3, align 1
  br label %12

12:                                               ; preds = %11, %9, %7
  %13 = load i1, ptr %3, align 1
  ret i1 %13
}

; Function Attrs: null_pointer_is_valid sspstrong uwtable
define internal void @quic_hp_cipher_reset(ptr noundef %0) #0 {
  %2 = alloca ptr, align 8
  store ptr %0, ptr %2, align 8
  %3 = load ptr, ptr %2, align 8
  %4 = getelementptr inbounds nuw %struct.quic_hp_cipher, ptr %3, i32 0, i32 0
  %5 = load ptr, ptr %4, align 8
  call void @gcry_cipher_close(ptr noundef %5)
  %6 = load ptr, ptr %2, align 8
  %7 = call ptr @memset.inline(ptr noundef %6, i32 noundef 0, i64 noundef 8) #19
  ret void
}

; Function Attrs: null_pointer_is_valid sspstrong uwtable
define internal zeroext i1 @quic_hp_cipher_prepare(ptr noundef %0, i32 noundef %1, i32 noundef %2, ptr noundef %3, ptr noundef %4, i32 noundef %5) #0 {
  %7 = alloca i1, align 1
  %8 = alloca ptr, align 8
  %9 = alloca i32, align 4
  %10 = alloca i32, align 4
  %11 = alloca ptr, align 8
  %12 = alloca ptr, align 8
  %13 = alloca i32, align 4
  %14 = alloca i32, align 4
  %15 = alloca i32, align 4
  %16 = alloca i32, align 4
  store ptr %0, ptr %8, align 8
  store i32 %1, ptr %9, align 4
  store i32 %2, ptr %10, align 4
  store ptr %3, ptr %11, align 8
  store ptr %4, ptr %12, align 8
  store i32 %5, ptr %13, align 4
  %17 = load ptr, ptr %8, align 8
  call void @quic_hp_cipher_reset(ptr noundef %17)
  call void @llvm.lifetime.start.p0(i64 4, ptr %14) #19
  %18 = load i32, ptr %10, align 4
  %19 = call zeroext i1 @quic_get_pn_cipher_algo(i32 noundef %18, ptr noundef %14)
  br i1 %19, label %22, label %20

20:                                               ; preds = %6
  %21 = load ptr, ptr %12, align 8
  store ptr @.str.495, ptr %21, align 8
  store i1 false, ptr %7, align 1
  store i32 1, ptr %15, align 4
  br label %55

22:                                               ; preds = %6
  %23 = load ptr, ptr %8, align 8
  %24 = getelementptr inbounds nuw %struct.quic_hp_cipher, ptr %23, i32 0, i32 0
  %25 = load i32, ptr %10, align 4
  %26 = load i32, ptr %14, align 4
  %27 = call i32 @gcry_cipher_open(ptr noundef %24, i32 noundef %25, i32 noundef %26, i32 noundef 0)
  %28 = icmp ne i32 %27, 0
  br i1 %28, label %29, label %32

29:                                               ; preds = %22
  %30 = load ptr, ptr %8, align 8
  call void @quic_hp_cipher_reset(ptr noundef %30)
  %31 = load ptr, ptr %12, align 8
  store ptr @.str.496, ptr %31, align 8
  store i1 false, ptr %7, align 1
  store i32 1, ptr %15, align 4
  br label %55

32:                                               ; preds = %22
  %33 = load ptr, ptr %11, align 8
  %34 = icmp ne ptr %33, null
  br i1 %34, label %35, label %54

35:                                               ; preds = %32
  call void @llvm.lifetime.start.p0(i64 4, ptr %16) #19
  %36 = load i32, ptr %10, align 4
  %37 = call i64 @gcry_cipher_get_algo_keylen(i32 noundef %36)
  %38 = trunc i64 %37 to i8
  %39 = zext i8 %38 to i32
  store i32 %39, ptr %16, align 4
  %40 = load ptr, ptr %8, align 8
  %41 = load i32, ptr %9, align 4
  %42 = load i32, ptr %16, align 4
  %43 = trunc i32 %42 to i8
  %44 = load ptr, ptr %11, align 8
  %45 = load i32, ptr %13, align 4
  %46 = call zeroext i1 @quic_hp_cipher_init(ptr noundef %40, i32 noundef %41, i8 noundef zeroext %43, ptr noundef %44, i32 noundef %45)
  br i1 %46, label %50, label %47

47:                                               ; preds = %35
  %48 = load ptr, ptr %8, align 8
  call void @quic_hp_cipher_reset(ptr noundef %48)
  %49 = load ptr, ptr %12, align 8
  store ptr @.str.497, ptr %49, align 8
  store i1 false, ptr %7, align 1
  store i32 1, ptr %15, align 4
  br label %51

50:                                               ; preds = %35
  store i32 0, ptr %15, align 4
  br label %51

51:                                               ; preds = %50, %47
  call void @llvm.lifetime.end.p0(i64 4, ptr %16) #19
  %52 = load i32, ptr %15, align 4
  switch i32 %52, label %55 [
    i32 0, label %53
  ]

53:                                               ; preds = %51
  br label %54

54:                                               ; preds = %53, %32
  store i1 true, ptr %7, align 1
  store i32 1, ptr %15, align 4
  br label %55

55:                                               ; preds = %54, %51, %29, %20
  call void @llvm.lifetime.end.p0(i64 4, ptr %14) #19
  %56 = load i1, ptr %7, align 1
  ret i1 %56
}