; Function Attrs: null_pointer_is_valid sspstrong uwtable
define internal fastcc noundef zeroext i1 @quic_hp_cipher_prepare(ptr noundef nonnull %0, i32 noundef %1, i32 noundef %2, ptr noundef %3, ptr noundef writeonly captures(none) %4, i32 noundef %5) unnamed_addr #0 {
  %7 = alloca %struct._StringInfo, align 8
  %8 = alloca ptr, align 8
  %9 = alloca [32 x i8], align 16
  %10 = load ptr, ptr %0, align 8
  tail call void @gcry_cipher_close(ptr noundef %10)
  store i64 0, ptr %0, align 1
  switch i32 %2, label %.critedge.sink.split [
    i32 7, label %.sink.split.i
    i32 9, label %.sink.split.i
    i32 316, label %11
  ]

.sink.split.i:                                    ; preds = %6, %6
  br label %11

11:                                               ; preds = %6, %.sink.split.i
  %.021.ph = phi i32 [ 1, %.sink.split.i ], [ 4, %6 ]
  %12 = tail call i32 @gcry_cipher_open(ptr noundef nonnull %0, i32 noundef %2, i32 noundef %.021.ph, i32 noundef 0)
  %.not = icmp eq i32 %12, 0
  br i1 %.not, label %15, label %13

13:                                               ; preds = %11
  %14 = load ptr, ptr %0, align 8
  tail call void @gcry_cipher_close(ptr noundef %14)
  br label %.critedge.sink.split.sink.split

15:                                               ; preds = %11
  %.not19 = icmp eq ptr %3, null
  br i1 %.not19, label %.critedge, label %16

16:                                               ; preds = %15
  %17 = tail call i64 @gcry_cipher_get_algo_keylen(i32 noundef %2)
  call void @llvm.lifetime.start.p0(i64 32, ptr nonnull %9) #18
  %18 = tail call i32 @gcry_md_get_algo_dlen(i32 noundef %1)
  %19 = icmp eq i32 %5, 1798521807
  %20 = select i1 %19, ptr @.str.499, ptr @.str.498
  call void @llvm.lifetime.start.p0(i64 16, ptr nonnull %7) #18
  store ptr %3, ptr %7, align 8
  %21 = getelementptr inbounds nuw i8, ptr %7, i64 8
  store i32 %18, ptr %21, align 8
  %22 = getelementptr inbounds nuw i8, ptr %7, i64 12
  store i32 0, ptr %22, align 4
  call void @llvm.lifetime.start.p0(i64 8, ptr nonnull %8) #18
  store ptr null, ptr %8, align 8
  %23 = trunc i64 %17 to i16
  %24 = and i16 %23, 255
  %25 = call zeroext i1 @tls13_hkdf_expand_label(i32 noundef %1, ptr noundef nonnull %7, ptr noundef nonnull @.str.494, ptr noundef nonnull %20, i16 noundef zeroext %24, ptr noundef nonnull %8)
  br i1 %25, label %quic_hp_cipher_init.exit, label %quic_hp_cipher_init.exit.thread

quic_hp_cipher_init.exit.thread:                  ; preds = %16
  call void @llvm.lifetime.end.p0(i64 8, ptr nonnull %8) #18
  call void @llvm.lifetime.end.p0(i64 16, ptr nonnull %7) #18
  call void @llvm.lifetime.end.p0(i64 32, ptr nonnull %9) #18
  br label %32

quic_hp_cipher_init.exit:                         ; preds = %16
  %26 = load ptr, ptr %8, align 8
  %27 = and i64 %17, 255
  %28 = call ptr @__memcpy_chk(ptr noundef nonnull %9, ptr noundef %26, i64 noundef range(i64 0, 4294967296) %27, i64 noundef 32) #18, !alias.scope !27
  call void @wmem_free(ptr noundef null, ptr noundef %26)
  call void @llvm.lifetime.end.p0(i64 8, ptr nonnull %8) #18
  call void @llvm.lifetime.end.p0(i64 16, ptr nonnull %7) #18
  %29 = load ptr, ptr %0, align 8
  %30 = call i32 @gcry_cipher_setkey(ptr noundef %29, ptr noundef nonnull %9, i64 noundef %27)
  %31 = icmp eq i32 %30, 0
  call void @llvm.lifetime.end.p0(i64 32, ptr nonnull %9) #18
  br i1 %31, label %.critedge, label %32

32:                                               ; preds = %quic_hp_cipher_init.exit.thread, %quic_hp_cipher_init.exit
  %33 = load ptr, ptr %0, align 8
  call void @gcry_cipher_close(ptr noundef %33)
  br label %.critedge.sink.split.sink.split

.critedge.sink.split.sink.split:                  ; preds = %32, %13
  %.str.497.sink.ph = phi ptr [ @.str.496, %13 ], [ @.str.497, %32 ]
  store i64 0, ptr %0, align 1
  br label %.critedge.sink.split

.critedge.sink.split:                             ; preds = %.critedge.sink.split.sink.split, %6
  %.str.497.sink = phi ptr [ @.str.495, %6 ], [ %.str.497.sink.ph, %.critedge.sink.split.sink.split ]
  store ptr %.str.497.sink, ptr %4, align 8
  br label %.critedge

.critedge:                                        ; preds = %.critedge.sink.split, %15, %quic_hp_cipher_init.exit
  %.0 = phi i1 [ true, %quic_hp_cipher_init.exit ], [ true, %15 ], [ false, %.critedge.sink.split ]
  ret i1 %.0
}